target datalayout = "e-m:e-p270:32:32-p271:32:32-p272:64:64-i64:64-i128:128-f80:128-n8:16:32:64-S128"
target triple = "x86_64-pc-linux-gnu"

%"class.std::__cxx11::basic_string" = type { %"struct.std::__cxx11::basic_string<char>::_Alloc_hider", i64, %union.anon.1 }
%"struct.std::__cxx11::basic_string<char>::_Alloc_hider" = type { ptr }
%union.anon.1 = type { i64, [8 x i8] }
%class.V3Hash = type { i32 }
%class.V3ErrorCode = type { i8 }
%class.ExecMTask = type { %class.V3GraphVertex, ptr, i32, %"class.std::__cxx11::basic_string", i32, i32, i64 }
%class.V3GraphVertex = type { ptr, %class.V3ListLinks, %class.V3List, %class.V3List.0, double, i32, i32, %union.anon }
%class.V3ListLinks = type { ptr, ptr }
%class.V3List = type { ptr, ptr }
%class.V3List.0 = type { ptr, ptr }
%union.anon = type { ptr }
%class.AstMTaskBody = type { %class.AstNode, ptr }
%class.AstNode = type { ptr, ptr, ptr, ptr, ptr, ptr, ptr, ptr, %class.VNType, %struct.anon, i8, i32, ptr, ptr, ptr, ptr, %class.VNUser, i32, i32, %class.VNUser, %class.VNUser, i32, i32, %class.VNUser }
%class.VNType = type { i16 }
%struct.anon = type { i8 }
%class.VNUser = type { %union.anon.2 }
%union.anon.2 = type { ptr }

@_ZN9ExecMTask8s_nextIdE = dso_local global i32 0, align 4
@.str = private unnamed_addr constant [117 x i8] c"generated/home/dtcxzyw/WorkSpace/Projects/compilers/llvm-opt-benchmark/bench/verilator/verilator/src/V3ExecGraph.cpp\00", align 1
@.str.1 = private unnamed_addr constant [53 x i8] c"AstMTaskBody should already be populated for hashing\00", align 1
@.str.2 = private unnamed_addr constant [44 x i8] c"AstMTaskBody already linked to an ExecMTask\00", align 1

; Function Attrs: mustprogress nounwind uwtable
define linkonce_odr dso_local void @_ZN11V3ListLinksI13V3GraphVertexED2Ev(ptr noundef nonnull align 8 dereferenceable(16) %0) unnamed_addr #6 comdat align 2 {
  %2 = alloca ptr, align 8
  store ptr %0, ptr %2, align 8
  ret void
}

; Function Attrs: mustprogress nounwind uwtable
define linkonce_odr dso_local void @_ZN6V3ListI11V3GraphEdgeXadL_ZNS0_6oLinksEvEES0_ED2Ev(ptr noundef nonnull align 8 dereferenceable(16) %0) unnamed_addr #6 comdat align 2 {
  %2 = alloca ptr, align 8
  store ptr %0, ptr %2, align 8
  ret void
}

; Function Attrs: mustprogress nounwind uwtable
define linkonce_odr dso_local void @_ZN6V3ListI11V3GraphEdgeXadL_ZNS0_6iLinksEvEES0_ED2Ev(ptr noundef nonnull align 8 dereferenceable(16) %0) unnamed_addr #6 comdat align 2 {
  %2 = alloca ptr, align 8
  store ptr %0, ptr %2, align 8
  ret void
}

; Function Attrs: mustprogress nounwind uwtable
define linkonce_odr dso_local noundef ptr @_ZNK7AstNode4op1pEv(ptr noundef nonnull align 8 dereferenceable(152) %0) #6 comdat align 2 {
  %2 = alloca ptr, align 8
  store ptr %0, ptr %2, align 8
  %3 = load ptr, ptr %2, align 8
  %4 = getelementptr inbounds %class.AstNode, ptr %3, i32 0, i32 3
  %5 = load ptr, ptr %4, align 8
  ret ptr %5
}

; Function Attrs: mustprogress nounwind uwtable
define linkonce_odr dso_local void @_ZN13V3GraphVertexD2Ev(ptr noundef nonnull align 8 dereferenceable(80) %0) unnamed_addr #6 comdat align 2 {
  %2 = alloca ptr, align 8
  store ptr %0, ptr %2, align 8
  %3 = load ptr, ptr %2, align 8
  store ptr getelementptr inbounds inrange(-16, 104) ({ [15 x ptr] }, ptr @_ZTV13V3GraphVertex, i32 0, i32 0, i32 2), ptr %3, align 8
  %4 = getelementptr inbounds %class.V3GraphVertex, ptr %3, i32 0, i32 3
  call void @_ZN6V3ListI11V3GraphEdgeXadL_ZNS0_6iLinksEvEES0_ED2Ev(ptr noundef nonnull align 8 dereferenceable(16) %4) #3
  %5 = getelementptr inbounds %class.V3GraphVertex, ptr %3, i32 0, i32 2
  call void @_ZN6V3ListI11V3GraphEdgeXadL_ZNS0_6oLinksEvEES0_ED2Ev(ptr noundef nonnull align 8 dereferenceable(16) %5) #3
  %6 = getelementptr inbounds %class.V3GraphVertex, ptr %3, i32 0, i32 1
  call void @_ZN11V3ListLinksI13V3GraphVertexED2Ev(ptr noundef nonnull align 8 dereferenceable(16) %6) #3
  ret void
}

; Function Attrs: mustprogress nounwind uwtable
define linkonce_odr dso_local void @_ZN12AstMTaskBody10execMTaskpEP9ExecMTask(ptr noundef nonnull align 8 dereferenceable(160) %0, ptr noundef %1) #6 comdat align 2 {
  %3 = alloca ptr, align 8
  %4 = alloca ptr, align 8
  store ptr %0, ptr %3, align 8
  store ptr %1, ptr %4, align 8
  %5 = load ptr, ptr %3, align 8
  %6 = load ptr, ptr %4, align 8
  %7 = getelementptr inbounds %class.AstMTaskBody, ptr %5, i32 0, i32 1
  store ptr %6, ptr %7, align 8
  ret void
}

; Function Attrs: mustprogress nounwind uwtable
define linkonce_odr dso_local noundef ptr @_ZNK12AstMTaskBody10execMTaskpEv(ptr noundef nonnull align 8 dereferenceable(160) %0) #6 comdat align 2 {
  %2 = alloca ptr, align 8
  store ptr %0, ptr %2, align 8
  %3 = load ptr, ptr %2, align 8
  %4 = getelementptr inbounds %class.AstMTaskBody, ptr %3, i32 0, i32 1
  %5 = load ptr, ptr %4, align 8
  ret ptr %5
}

; Function Attrs: mustprogress nounwind uwtable
define linkonce_odr dso_local void @_ZN11V3ErrorCodeC2ENS_2enE(ptr noundef nonnull align 1 dereferenceable(1) %0, i8 noundef zeroext %1) unnamed_addr #6 comdat align 2 {
  %3 = alloca ptr, align 8
  %4 = alloca i8, align 1
  store ptr %0, ptr %3, align 8
  store i8 %1, ptr %4, align 1
  %5 = load ptr, ptr %3, align 8
  %6 = getelementptr inbounds %class.V3ErrorCode, ptr %5, i32 0, i32 0
  %7 = load i8, ptr %4, align 1
  store i8 %7, ptr %6, align 1
  ret void
}

; Function Attrs: mustprogress uwtable
define linkonce_odr dso_local noundef ptr @_ZNK12AstMTaskBody6stmtspEv(ptr noundef nonnull align 8 dereferenceable(160) %0) #4 comdat align 2 {
  %2 = alloca ptr, align 8
  store ptr %0, ptr %2, align 8
  %3 = load ptr, ptr %2, align 8
  %4 = call noundef ptr @_ZNK7AstNode4op1pEv(ptr noundef nonnull align 8 dereferenceable(152) %3)
  ret ptr %4
}

; Function Attrs: mustprogress uwtable
define dso_local void @_ZN9ExecMTaskC2EP7V3GraphP12AstMTaskBody(ptr noundef nonnull align 8 dereferenceable(144) %0, ptr noundef %1, ptr noundef %2) unnamed_addr #4 align 2 personality ptr @__gxx_personality_v0 {
  %4 = alloca ptr, align 8
  %5 = alloca ptr, align 8
  %6 = alloca ptr, align 8
  %7 = alloca %class.V3Hash, align 4
  %8 = alloca ptr, align 8
  %9 = alloca i32, align 4
  %10 = alloca %class.V3ErrorCode, align 1
  %11 = alloca %class.V3ErrorCode, align 1
  store ptr %0, ptr %4, align 8
  store ptr %1, ptr %5, align 8
  store ptr %2, ptr %6, align 8
  %12 = load ptr, ptr %4, align 8
  %13 = load ptr, ptr %5, align 8
  call void @_ZN13V3GraphVertexC2EP7V3Graph(ptr noundef nonnull align 8 dereferenceable(80) %12, ptr noundef %13)
  store ptr getelementptr inbounds inrange(-16, 104) ({ [15 x ptr] }, ptr @_ZTV9ExecMTask, i32 0, i32 0, i32 2), ptr %12, align 8
  %14 = getelementptr inbounds %class.ExecMTask, ptr %12, i32 0, i32 1
  %15 = load ptr, ptr %6, align 8
  store ptr %15, ptr %14, align 8
  %16 = getelementptr inbounds %class.ExecMTask, ptr %12, i32 0, i32 2
  %17 = load i32, ptr @_ZN9ExecMTask8s_nextIdE, align 4
  %18 = add i32 %17, 1
  store i32 %18, ptr @_ZN9ExecMTask8s_nextIdE, align 4
  store i32 %17, ptr %16, align 8
  %19 = getelementptr inbounds %class.ExecMTask, ptr %12, i32 0, i32 3
  %20 = load ptr, ptr %6, align 8
  %21 = invoke i32 @_ZN8V3Hasher12uncachedHashEPK7AstNode(ptr noundef %20)
          to label %22 unwind label %48

22:                                               ; preds = %3
  %23 = getelementptr inbounds %class.V3Hash, ptr %7, i32 0, i32 0
  store i32 %21, ptr %23, align 4
  invoke void @_ZNK6V3Hash8toStringB5cxx11Ev(ptr dead_on_unwind writable sret(%"class.std::__cxx11::basic_string") align 8 %19, ptr noundef nonnull align 4 dereferenceable(4) %7)
          to label %24 unwind label %48

24:                                               ; preds = %22
  %25 = getelementptr inbounds %class.ExecMTask, ptr %12, i32 0, i32 4
  store i32 0, ptr %25, align 8
  %26 = getelementptr inbounds %class.ExecMTask, ptr %12, i32 0, i32 5
  store i32 0, ptr %26, align 4
  %27 = getelementptr inbounds %class.ExecMTask, ptr %12, i32 0, i32 6
  store i64 0, ptr %27, align 8
  br label %28

28:                                               ; preds = %24
  %29 = load ptr, ptr %6, align 8
  %30 = invoke noundef ptr @_ZNK12AstMTaskBody6stmtspEv(ptr noundef nonnull align 8 dereferenceable(160) %29)
          to label %31 unwind label %52

31:                                               ; preds = %28
  %32 = icmp ne ptr %30, null
  %33 = xor i1 %32, true
  %34 = xor i1 %33, true
  %35 = xor i1 %34, true
  br i1 %35, label %36, label %56

36:                                               ; preds = %31
  %37 = load ptr, ptr %6, align 8
  invoke void @_ZN11V3ErrorCodeC2ENS_2enE(ptr noundef nonnull align 1 dereferenceable(1) %10, i8 noundef zeroext 4)
          to label %38 unwind label %52

38:                                               ; preds = %36
  %39 = getelementptr inbounds %class.V3ErrorCode, ptr %10, i32 0, i32 0
  %40 = load i8, ptr %39, align 1
  %41 = invoke noundef nonnull align 8 dereferenceable(112) ptr @_ZN7V3Error19v3errorPrepFileLineB5cxx11E11V3ErrorCodePKcib(i8 %40, ptr noundef @.str, i32 noundef 41, i1 noundef zeroext true)
          to label %42 unwind label %52

42:                                               ; preds = %38
  %43 = invoke noundef nonnull align 8 dereferenceable(112) ptr @_ZN7V3Error10v3errorStrB5cxx11Ev()
          to label %44 unwind label %52

44:                                               ; preds = %42
  %45 = invoke noundef nonnull align 8 dereferenceable(8) ptr @_ZStlsISt11char_traitsIcEERSt13basic_ostreamIcT_ES5_PKc(ptr noundef nonnull align 8 dereferenceable(8) %43, ptr noundef @.str.1)
          to label %46 unwind label %52

46:                                               ; preds = %44
  invoke void @_ZNK7AstNode15v3errorEndFatalERNSt7__cxx1119basic_ostringstreamIcSt11char_traitsIcESaIcEEE(ptr noundef nonnull align 8 dereferenceable(152) %37, ptr noundef nonnull align 8 dereferenceable(112) %45) #16
          to label %47 unwind label %52

47:                                               ; preds = %46
  unreachable

48:                                               ; preds = %22, %3
  %49 = landingpad { ptr, i32 }
          cleanup
  %50 = extractvalue { ptr, i32 } %49, 0
  store ptr %50, ptr %8, align 8
  %51 = extractvalue { ptr, i32 } %49, 1
  store i32 %51, ptr %9, align 4
  br label %85

52:                                               ; preds = %82, %78, %76, %74, %70, %68, %59, %46, %44, %42, %38, %36, %28
  %53 = landingpad { ptr, i32 }
          cleanup
  %54 = extractvalue { ptr, i32 } %53, 0
  store ptr %54, ptr %8, align 8
  %55 = extractvalue { ptr, i32 } %53, 1
  store i32 %55, ptr %9, align 4
  call void @_ZNSt7__cxx1112basic_stringIcSt11char_traitsIcESaIcEED1Ev(ptr noundef nonnull align 8 dereferenceable(32) %19) #3
  br label %85

56:                                               ; preds = %31
  br label %57

57:                                               ; preds = %56
  br label %58

58:                                               ; preds = %57
  br label %59

59:                                               ; preds = %58
  %60 = load ptr, ptr %6, align 8
  %61 = invoke noundef ptr @_ZNK12AstMTaskBody10execMTaskpEv(ptr noundef nonnull align 8 dereferenceable(160) %60)
          to label %62 unwind label %52

62:                                               ; preds = %59
  %63 = icmp ne ptr %61, null
  %64 = xor i1 %63, true
  %65 = xor i1 %64, true
  %66 = xor i1 %65, true
  %67 = xor i1 %66, true
  br i1 %67, label %68, label %80

68:                                               ; preds = %62
  %69 = load ptr, ptr %6, align 8
  invoke void @_ZN11V3ErrorCodeC2ENS_2enE(ptr noundef nonnull align 1 dereferenceable(1) %11, i8 noundef zeroext 4)
          to label %70 unwind label %52

70:                                               ; preds = %68
  %71 = getelementptr inbounds %class.V3ErrorCode, ptr %11, i32 0, i32 0
  %72 = load i8, ptr %71, align 1
  %73 = invoke noundef nonnull align 8 dereferenceable(112) ptr @_ZN7V3Error19v3errorPrepFileLineB5cxx11E11V3ErrorCodePKcib(i8 %72, ptr noundef @.str, i32 noundef 42, i1 noundef zeroext true)
          to label %74 unwind label %52

74:                                               ; preds = %70
  %75 = invoke noundef nonnull align 8 dereferenceable(112) ptr @_ZN7V3Error10v3errorStrB5cxx11Ev()
          to label %76 unwind label %52

76:                                               ; preds = %74
  %77 = invoke noundef nonnull align 8 dereferenceable(8) ptr @_ZStlsISt11char_traitsIcEERSt13basic_ostreamIcT_ES5_PKc(ptr noundef nonnull align 8 dereferenceable(8) %75, ptr noundef @.str.2)
          to label %78 unwind label %52

78:                                               ; preds = %76
  invoke void @_ZNK7AstNode15v3errorEndFatalERNSt7__cxx1119basic_ostringstreamIcSt11char_traitsIcESaIcEEE(ptr noundef nonnull align 8 dereferenceable(152) %69, ptr noundef nonnull align 8 dereferenceable(112) %77) #16
          to label %79 unwind label %52

79:                                               ; preds = %78
  unreachable

80:                                               ; preds = %62
  br label %81

81:                                               ; preds = %80
  br label %82

82:                                               ; preds = %81
  %83 = load ptr, ptr %6, align 8
  invoke void @_ZN12AstMTaskBody10execMTaskpEP9ExecMTask(ptr noundef nonnull align 8 dereferenceable(160) %83, ptr noundef %12)
          to label %84 unwind label %52

84:                                               ; preds = %82
  ret void

85:                                               ; preds = %52, %48
  call void @_ZN13V3GraphVertexD2Ev(ptr noundef nonnull align 8 dereferenceable(80) %12) #3
  br label %86

86:                                               ; preds = %85
  %87 = load ptr, ptr %8, align 8
  %88 = load i32, ptr %9, align 4
  %89 = insertvalue { ptr, i32 } poison, ptr %87, 0
  %90 = insertvalue { ptr, i32 } %89, i32 %88, 1
  resume { ptr, i32 } %90
}