; Function Attrs: mustprogress uwtable
define dso_local void @_ZN9ExecMTaskC2EP7V3GraphP12AstMTaskBody(ptr noundef nonnull align 8 dereferenceable(144) %0, ptr noundef %1, ptr noundef %2) unnamed_addr #3 align 2 personality ptr @__gxx_personality_v0 {
  %4 = alloca %class.V3Hash, align 4
  tail call void @_ZN13V3GraphVertexC2EP7V3Graph(ptr noundef nonnull align 8 dereferenceable(80) %0, ptr noundef %1)
  store ptr getelementptr inbounds inrange(-16, 104) ({ [15 x ptr] }, ptr @_ZTV9ExecMTask, i64 0, i32 0, i64 2), ptr %0, align 8
  %5 = getelementptr inbounds i8, ptr %0, i64 80
  store ptr %2, ptr %5, align 8
  %6 = getelementptr inbounds i8, ptr %0, i64 88
  %7 = load i32, ptr @_ZN9ExecMTask8s_nextIdE, align 4
  %8 = add i32 %7, 1
  store i32 %8, ptr @_ZN9ExecMTask8s_nextIdE, align 4
  store i32 %7, ptr %6, align 8
  %9 = getelementptr inbounds i8, ptr %0, i64 96
  %10 = invoke i32 @_ZN8V3Hasher12uncachedHashEPK7AstNode(ptr noundef %2)
          to label %11 unwind label %20

11:                                               ; preds = %3
  store i32 %10, ptr %4, align 4
  invoke void @_ZNK6V3Hash8toStringB5cxx11Ev(ptr dead_on_unwind nonnull writable sret(%"class.std::__cxx11::basic_string") align 8 %9, ptr noundef nonnull align 4 dereferenceable(4) %4)
          to label %12 unwind label %20

12:                                               ; preds = %11
  %13 = getelementptr inbounds i8, ptr %0, i64 128
  %14 = getelementptr inbounds i8, ptr %2, i64 24
  call void @llvm.memset.p0.i64(ptr noundef nonnull align 8 dereferenceable(16) %13, i8 0, i64 16, i1 false)
  %15 = load ptr, ptr %14, align 8
  %.not = icmp eq ptr %15, null
  br i1 %.not, label %16, label %24

16:                                               ; preds = %12
  %17 = invoke noundef nonnull align 8 dereferenceable(112) ptr @_ZN7V3Error19v3errorPrepFileLineB5cxx11E11V3ErrorCodePKcib(i8 4, ptr noundef nonnull @.str, i32 noundef 41, i1 noundef zeroext true)
          to label %18 unwind label %22

18:                                               ; preds = %16
  %19 = invoke noundef nonnull align 8 dereferenceable(112) ptr @_ZN7V3Error10v3errorStrB5cxx11Ev()
          to label %.invoke14 unwind label %22

20:                                               ; preds = %11, %3
  %21 = landingpad { ptr, i32 }
          cleanup
  br label %35

22:                                               ; preds = %.invoke14, %.invoke, %29, %27, %18, %16
  %23 = landingpad { ptr, i32 }
          cleanup
  call void @_ZNSt7__cxx1112basic_stringIcSt11char_traitsIcESaIcEED1Ev(ptr noundef nonnull align 8 dereferenceable(32) %9) #20
  br label %35

24:                                               ; preds = %12
  %25 = getelementptr inbounds i8, ptr %2, i64 152
  %26 = load ptr, ptr %25, align 8
  %.not11 = icmp eq ptr %26, null
  br i1 %.not11, label %34, label %27

27:                                               ; preds = %24
  %28 = invoke noundef nonnull align 8 dereferenceable(112) ptr @_ZN7V3Error19v3errorPrepFileLineB5cxx11E11V3ErrorCodePKcib(i8 4, ptr noundef nonnull @.str, i32 noundef 42, i1 noundef zeroext true)
          to label %29 unwind label %22

29:                                               ; preds = %27
  %30 = invoke noundef nonnull align 8 dereferenceable(112) ptr @_ZN7V3Error10v3errorStrB5cxx11Ev()
          to label %.invoke14 unwind label %22

.invoke14:                                        ; preds = %18, %29
  %31 = phi ptr [ %30, %29 ], [ %19, %18 ]
  %32 = phi ptr [ @.str.2, %29 ], [ @.str.1, %18 ]
  %33 = invoke noundef nonnull align 8 dereferenceable(8) ptr @_ZStlsISt11char_traitsIcEERSt13basic_ostreamIcT_ES5_PKc(ptr noundef nonnull align 8 dereferenceable(8) %31, ptr noundef nonnull %32)
          to label %.invoke unwind label %22

.invoke:                                          ; preds = %.invoke14
  invoke void @_ZNK7AstNode15v3errorEndFatalERNSt7__cxx1119basic_ostringstreamIcSt11char_traitsIcESaIcEEE(ptr noundef nonnull align 8 dereferenceable(152) %2, ptr noundef nonnull align 8 dereferenceable(112) %33) #21
          to label %.cont unwind label %22

.cont:                                            ; preds = %.invoke
  unreachable

34:                                               ; preds = %24
  store ptr %0, ptr %25, align 8
  ret void

35:                                               ; preds = %22, %20
  %.pn = phi { ptr, i32 } [ %23, %22 ], [ %21, %20 ]
  store ptr getelementptr inbounds inrange(-16, 104) ({ [15 x ptr] }, ptr @_ZTV13V3GraphVertex, i64 0, i32 0, i64 2), ptr %0, align 8
  resume { ptr, i32 } %.pn
}